0001   0000             ;==================================================================================
0002   0000             ; Contents of this file are copyright Grant Searle
0003   0000             ;
0004   0000             ; You have permission to use this for NON COMMERCIAL USE ONLY
0005   0000             ; If you wish to use it elsewhere, please include an acknowledgement to myself.
0006   0000             ;
0007   0000             ; http://searle.hostei.com/grant/index.html
0008   0000             ;
0009   0000             ; eMail: home.micros01@btinternet.com
0010   0000             ;
0011   0000             ; If the above don't work, please perform an Internet search to see if I have
0012   0000             ; updated the web page hosting service.
0013   0000             ;
0014   0000             ;==================================================================================
0015   0000             
0016   0000             numDrives	.EQU	15		; Not including A:
0017   0000             
0018   0000             
0019   0000             SD_DATA		.EQU	088H
0020   0000             SD_CONTROL	.EQU	089H
0021   0000             SD_STATUS	.EQU	089H
0022   0000             SD_LBA0		.EQU	08AH
0023   0000             SD_LBA1		.EQU	08BH
0024   0000             SD_LBA2		.EQU	08CH
0025   0000             
0026   0000             LF		.EQU	0AH		;line feed
0027   0000             FF		.EQU	0CH		;form feed
0028   0000             CR		.EQU	0DH		;carriage RETurn
0029   0000             
0030   0000             ;====================================================================================
0031   0000             
0032   5000             		.ORG	5000H		; Format program origin.
0033   5000             
0034   5000             
0035   5000 CD CF 50    		CALL	printInline
0036   5003 43502F4D2046		.TEXT "CP/M Formatter 2.0 by G. Searle 2013"
0036   5009 6F726D617474657220322E3020627920472E20536561726C652032303133
0037   5027 0D 0A 00    		.DB CR,LF,0
0038   502A             
0039   502A 3E 41       		LD	A,'A'
0040   502C 32 E1 50    		LD	(drvName),A
0041   502F             
0042   502F             ; There are 512 directory entries per disk, 4 DIR entries per sector
0043   502F             ; So 128 x 128 byte sectors are to be initialised
0044   502F             ; The drive uses 512 byte sectors, so 32 x 512 byte sectors per disk
0045   502F             ; require initialisation
0046   502F             
0047   502F             ;Drive 0 (A:) is slightly different due to reserved track, so DIR sector starts at 32
0048   502F 3A E1 50    		LD	A,(drvName)
0049   5032 CF          		RST	08H		; Print drive letter
0050   5033 3C          		INC	A
0051   5034 32 E1 50    		LD	(drvName),A
0052   5037             
0053   5037 3E 20       		LD	A,$20
0054   5039 32 E0 50    		LD	(secNo),A
0055   503C             
0056   503C             processSectorA:
0057   503C             
0058   503C 3A E0 50    		LD	A,(secNo)
0059   503F D3 8A       		OUT 	(SD_LBA0),A
0060   5041 3E 00       		LD	A,0
0061   5043 D3 8B       		OUT 	(SD_LBA1),A
0062   5045 3E 00       		LD	A,0
0063   5047 D3 8C       		OUT 	(SD_LBA2),A
0064   5049 3E E0       		LD	a,$E0
0065   504B             
0066   504B CD A7 50    		call	writehst
0067   504E             
0068   504E 3A E0 50    		LD	A,(secNo)
0069   5051 3C          		INC	A
0070   5052 32 E0 50    		LD	(secNo),A
0071   5055 FE 40       		CP	$40
0072   5057 20 E3       		JR	NZ, processSectorA
0073   5059             
0074   5059             
0075   5059             
0076   5059             ;Drive 1 onwards (B: etc) don't have reserved tracks, so sector starts at 0
0077   5059             
0078   5059 11 40 00    		LD 	DE,$0040  ; HL increment
0079   505C 21 40 00    		LD 	HL,$0040  ; H = LBA2, L=LBA1, initialise for drive 1 (B:)
0080   505F             
0081   505F 06 0F       		LD	B,numDrives
0082   5061             
0083   5061             processDirs:
0084   5061             
0085   5061 3A E1 50    		LD	A,(drvName)
0086   5064 CF          		RST	08H		; Print drive letter
0087   5065 3C          		INC	A
0088   5066 32 E1 50    		LD	(drvName),A
0089   5069             
0090   5069 3E 00       		LD	A,0
0091   506B 32 E0 50    		LD	(secNo),A
0092   506E             
0093   506E             processSector:
0094   506E 3A E0 50    		LD	A,(secNo)
0095   5071 D3 8A       		OUT 	(SD_LBA0),A
0096   5073 7D          		LD	A,L
0097   5074 D3 8B       		OUT 	(SD_LBA1),A
0098   5076 7C          		LD	A,H
0099   5077 D3 8C       		OUT 	(SD_LBA2),A
0100   5079             
0101   5079 CD A7 50    		call	writehst
0102   507C             
0103   507C 3A E0 50    		LD	A,(secNo)
0104   507F 3C          		INC	A
0105   5080 32 E0 50    		LD	(secNo),A
0106   5083 FE 20       		CP	$20
0107   5085 20 E7       		JR	NZ, processSector
0108   5087             
0109   5087 19          		ADD	HL,DE
0110   5088             
0111   5088 05          		DEC	B
0112   5089 20 D6       		JR	NZ,processDirs
0113   508B             
0114   508B CD CF 50    		CALL	printInline
0115   508E 0D 0A       		.DB CR,LF
0116   5090 466F726D6174		.TEXT "Formatting complete"
0116   5096 74696E6720636F6D706C657465
0117   50A3 0D 0A 00    		.DB CR,LF,0
0118   50A6             
0119   50A6 C9          		RET				
0120   50A7             
0121   50A7             ;================================================================================================
0122   50A7             ; Write physical sector to host
0123   50A7             ;================================================================================================
0124   50A7             
0125   50A7             writehst:
0126   50A7 F5          		PUSH 	AF
0127   50A8 C5          		PUSH 	BC
0128   50A9 E5          		PUSH 	HL
0129   50AA             
0130   50AA DB 89       wrWait1: IN	A,(SD_STATUS)
0131   50AC FE 80       		CP	128
0132   50AE 20 FA       		JR	NZ,wrWait1
0133   50B0             
0134   50B0             		;CALL 	setLBAaddr
0135   50B0             		
0136   50B0 3E 01       		LD	A,$01	; 01 = Write block
0137   50B2 D3 89       		OUT	(SD_CONTROL),A
0138   50B4             	
0139   50B4 0E 04       		LD 	c,4
0140   50B6             wr4secs:
0141   50B6 21 E2 50    		LD 	HL,dirData
0142   50B9 06 80       		LD 	b,128
0143   50BB             wrByte:
0144   50BB             	
0145   50BB DB 89       wrWait2: IN	A,(SD_STATUS)
0146   50BD FE A0       		CP	160 ; Write buffer empty
0147   50BF 20 FA       		JR	NZ,wrWait2
0148   50C1             
0149   50C1 7E          		LD 	A,(HL)
0150   50C2 D3 88       		OUT	(SD_DATA),A
0151   50C4 23          		INC 	HL
0152   50C5 05          		dec 	b
0153   50C6 20 F3       		JR 	NZ, wrByte
0154   50C8             
0155   50C8 0D          		dec 	c
0156   50C9 20 EB       		JR 	NZ,wr4secs
0157   50CB             
0158   50CB E1          		POP 	HL
0159   50CC C1          		POP 	BC
0160   50CD F1          		POP 	AF
0161   50CE             		
0162   50CE             		;XOR 	a
0163   50CE             		;ld	(erflag),a
0164   50CE C9          		RET
0165   50CF             
0166   50CF             ;================================================================================================
0167   50CF             ; Utilities
0168   50CF             ;================================================================================================
0169   50CF             
0170   50CF             printInline:
0171   50CF E3          		EX 	(SP),HL 	; PUSH HL and put RET ADDress into HL
0172   50D0 F5          		PUSH 	AF
0173   50D1 C5          		PUSH 	BC
0174   50D2 7E          nextILChar:	LD 	A,(HL)
0175   50D3 FE 00       		CP	0
0176   50D5 28 04       		JR	Z,endOfPrint
0177   50D7 CF          		RST 	08H
0178   50D8 23          		INC 	HL
0179   50D9 18 F7       		JR	nextILChar
0180   50DB 23          endOfPrint:	INC 	HL 		; Get past "null" terminator
0181   50DC C1          		POP 	BC
0182   50DD F1          		POP 	AF
0183   50DE E3          		EX 	(SP),HL 	; PUSH new RET ADDress on stack and restore HL
0184   50DF C9          		RET
0185   50E0             
0186   50E0             
0187   50E0 00          secNo		.db	0
0188   50E1 00          drvName		.db	0
0189   50E2             
0190   50E2             
0191   50E2             ; Directory data for 1 x 128 byte sector
0192   50E2             dirData:
0193   50E2 E52020202020		.DB $E5,$20,$20,$20,$20,$20,$20,$20,$20,$20,$20,$20,$00,$00,$00,$00
0193   50E8 20202020202000000000
0194   50F2 000000000000		.DB $00,$00,$00,$00,$00,$00,$00,$00,$00,$00,$00,$00,$00,$00,$00,$00
0194   50F8 00000000000000000000
0195   5102             
0196   5102 E52020202020		.DB $E5,$20,$20,$20,$20,$20,$20,$20,$20,$20,$20,$20,$00,$00,$00,$00
0196   5108 20202020202000000000
0197   5112 000000000000		.DB $00,$00,$00,$00,$00,$00,$00,$00,$00,$00,$00,$00,$00,$00,$00,$00
0197   5118 00000000000000000000
0198   5122             
0199   5122 E52020202020		.DB $E5,$20,$20,$20,$20,$20,$20,$20,$20,$20,$20,$20,$00,$00,$00,$00
0199   5128 20202020202000000000
0200   5132 000000000000		.DB $00,$00,$00,$00,$00,$00,$00,$00,$00,$00,$00,$00,$00,$00,$00,$00
0200   5138 00000000000000000000
0201   5142             
0202   5142 E52020202020		.DB $E5,$20,$20,$20,$20,$20,$20,$20,$20,$20,$20,$20,$00,$00,$00,$00
0202   5148 20202020202000000000
0203   5152 000000000000		.DB $00,$00,$00,$00,$00,$00,$00,$00,$00,$00,$00,$00,$00,$00,$00,$00
0203   5158 00000000000000000000
0204   5162             
0205   5162             		.END
tasm: Number of errors = 0
